; Function Attrs: mustprogress uwtable
define noundef nonnull align 8 dereferenceable(64) ptr @_ZNK6icu_759ScriptSet14displayScriptsERNS_13UnicodeStringE(ptr nocapture noundef nonnull readonly align 4 dereferenceable(28) %this, ptr noundef nonnull returned align 8 dereferenceable(64) %dest) local_unnamed_addr #7 align 2 personality ptr @__gxx_personality_v0 {
entry:
  %srcChar.addr.i = alloca i16, align 2
  %ref.tmp = alloca %"class.icu_75::UnicodeString", align 8
  br label %_ZNK6icu_759ScriptSet4testE11UScriptCodeR10UErrorCode.exit.i

_ZNK6icu_759ScriptSet4testE11UScriptCodeR10UErrorCode.exit.i: ; preds = %for.inc.i, %entry
  %scriptIndex.011.i = phi i32 [ %inc.i, %for.inc.i ], [ 0, %entry ]
  %div5.i.i = lshr i32 %scriptIndex.011.i, 5
  %and.i.i = and i32 %scriptIndex.011.i, 31
  %shl.i.i = shl nuw i32 1, %and.i.i
  %idxprom.i.i = zext nneg i32 %div5.i.i to i64
  %arrayidx.i.i = getelementptr inbounds [7 x i32], ptr %this, i64 0, i64 %idxprom.i.i
  %0 = load i32, ptr %arrayidx.i.i, align 4
  %and5.i.i = and i32 %0, %shl.i.i
  %cmp6.i.not.i = icmp eq i32 %and5.i.i, 0
  br i1 %cmp6.i.not.i, label %for.inc.i, label %for.body.lr.ph

for.inc.i:                                        ; preds = %_ZNK6icu_759ScriptSet4testE11UScriptCodeR10UErrorCode.exit.i
  %inc.i = add nuw nsw i32 %scriptIndex.011.i, 1
  %exitcond.not.i = icmp eq i32 %inc.i, 224
  br i1 %exitcond.not.i, label %for.end, label %_ZNK6icu_759ScriptSet4testE11UScriptCodeR10UErrorCode.exit.i, !llvm.loop !12

for.body.lr.ph:                                   ; preds = %_ZNK6icu_759ScriptSet4testE11UScriptCodeR10UErrorCode.exit.i
  %fUnion.i.i.i = getelementptr inbounds i8, ptr %ref.tmp, i64 8
  %fLength.i.i = getelementptr inbounds i8, ptr %ref.tmp, i64 12
  br label %for.body

for.body:                                         ; preds = %_ZNK6icu_759ScriptSet4testE11UScriptCodeR10UErrorCode.exit.i18, %for.body.lr.ph
  %tobool.not29 = phi i1 [ false, %for.body.lr.ph ], [ true, %_ZNK6icu_759ScriptSet4testE11UScriptCodeR10UErrorCode.exit.i18 ]
  %i.028 = phi i32 [ %scriptIndex.011.i, %for.body.lr.ph ], [ %scriptIndex.011.i9, %_ZNK6icu_759ScriptSet4testE11UScriptCodeR10UErrorCode.exit.i18 ]
  br i1 %tobool.not29, label %if.then, label %if.end

if.then:                                          ; preds = %for.body
  call void @llvm.lifetime.start.p0(i64 2, ptr nonnull %srcChar.addr.i)
  store i16 32, ptr %srcChar.addr.i, align 2
  %call.i = call noundef nonnull align 8 dereferenceable(64) ptr @_ZN6icu_7513UnicodeString8doAppendEPKDsii(ptr noundef nonnull align 8 dereferenceable(64) %dest, ptr noundef nonnull %srcChar.addr.i, i32 noundef 0, i32 noundef 1)
  call void @llvm.lifetime.end.p0(i64 2, ptr nonnull %srcChar.addr.i)
  br label %if.end

if.end:                                           ; preds = %if.then, %for.body
  %call3 = call ptr @uscript_getShortName_75(i32 noundef %i.028)
  call void @_ZN6icu_7513UnicodeStringC1EPKciNS0_10EInvariantE(ptr noundef nonnull align 8 dereferenceable(64) %ref.tmp, ptr noundef %call3, i32 noundef -1, i32 noundef 0)
  %1 = load i16, ptr %fUnion.i.i.i, align 8
  %cmp.i.i.i5 = icmp slt i16 %1, 0
  %2 = ashr i16 %1, 5
  %shr.i.i.i = sext i16 %2 to i32
  %3 = load i32, ptr %fLength.i.i, align 4
  %cond.i.i = select i1 %cmp.i.i.i5, i32 %3, i32 %shr.i.i.i
  %call2.i6 = invoke noundef nonnull align 8 dereferenceable(64) ptr @_ZN6icu_7513UnicodeString8doAppendERKS0_ii(ptr noundef nonnull align 8 dereferenceable(64) %dest, ptr noundef nonnull align 8 dereferenceable(64) %ref.tmp, i32 noundef 0, i32 noundef %cond.i.i)
          to label %invoke.cont unwind label %lpad

invoke.cont:                                      ; preds = %if.end
  call void @_ZN6icu_7513UnicodeStringD1Ev(ptr noundef nonnull align 8 dereferenceable(64) %ref.tmp) #14
  %or.cond.i = icmp ult i32 %i.028, 223
  br i1 %or.cond.i, label %for.body.i8.preheader, label %for.end

for.body.i8.preheader:                            ; preds = %invoke.cont
  %add = add nuw nsw i32 %i.028, 1
  br label %for.body.i8

for.body.i8:                                      ; preds = %for.body.i8.preheader, %for.inc.i12
  %scriptIndex.011.i9 = phi i32 [ %inc.i14, %for.inc.i12 ], [ %add, %for.body.i8.preheader ]
  %status.010.i10 = phi i32 [ %status.18.i13, %for.inc.i12 ], [ 0, %for.body.i8.preheader ]
  %cmp.i.i.i11 = icmp slt i32 %status.010.i10, 1
  br i1 %cmp.i.i.i11, label %if.end.i.i16, label %for.inc.i12

if.end.i.i16:                                     ; preds = %for.body.i8
  %or.cond.i.i17 = icmp ugt i32 %scriptIndex.011.i9, 223
  br i1 %or.cond.i.i17, label %for.inc.i12, label %_ZNK6icu_759ScriptSet4testE11UScriptCodeR10UErrorCode.exit.i18

_ZNK6icu_759ScriptSet4testE11UScriptCodeR10UErrorCode.exit.i18: ; preds = %if.end.i.i16
  %div5.i.i19 = lshr i32 %scriptIndex.011.i9, 5
  %and.i.i20 = and i32 %scriptIndex.011.i9, 31
  %shl.i.i21 = shl nuw i32 1, %and.i.i20
  %idxprom.i.i22 = zext nneg i32 %div5.i.i19 to i64
  %arrayidx.i.i23 = getelementptr inbounds [7 x i32], ptr %this, i64 0, i64 %idxprom.i.i22
  %4 = load i32, ptr %arrayidx.i.i23, align 4
  %and5.i.i24 = and i32 %4, %shl.i.i21
  %cmp6.i.not.i25 = icmp eq i32 %and5.i.i24, 0
  br i1 %cmp6.i.not.i25, label %for.inc.i12, label %for.body, !llvm.loop !14

for.inc.i12:                                      ; preds = %_ZNK6icu_759ScriptSet4testE11UScriptCodeR10UErrorCode.exit.i18, %if.end.i.i16, %for.body.i8
  %status.18.i13 = phi i32 [ %status.010.i10, %_ZNK6icu_759ScriptSet4testE11UScriptCodeR10UErrorCode.exit.i18 ], [ 1, %if.end.i.i16 ], [ %status.010.i10, %for.body.i8 ]
  %inc.i14 = add i32 %scriptIndex.011.i9, 1
  %exitcond.not.i15 = icmp eq i32 %inc.i14, 224
  br i1 %exitcond.not.i15, label %for.end, label %for.body.i8, !llvm.loop !12

lpad:                                             ; preds = %if.end
  %5 = landingpad { ptr, i32 }
          cleanup
  call void @_ZN6icu_7513UnicodeStringD1Ev(ptr noundef nonnull align 8 dereferenceable(64) %ref.tmp) #14
  resume { ptr, i32 } %5

for.end:                                          ; preds = %for.inc.i, %invoke.cont, %for.inc.i12
  ret ptr %dest
}